; Function Attrs: mustprogress nofree norecurse nosync nounwind ssp willreturn memory(argmem: read) uwtable
define noundef zeroext i1 @_ZN6open3d8geometry16IntersectionTest8AABBAABBERKN5Eigen6MatrixIdLi3ELi1ELi0ELi3ELi1EEES6_S6_S6_(ptr noundef nonnull readonly align 8 captures(none) dereferenceable(24) %0, ptr noundef nonnull readonly align 8 captures(none) dereferenceable(24) %1, ptr noundef nonnull readonly align 8 captures(none) dereferenceable(24) %2, ptr noundef nonnull readonly align 8 captures(none) dereferenceable(24) %3) local_unnamed_addr #1 align 2 personality ptr @__gxx_personality_v0 {
  %5 = load double, ptr %1, align 8, !tbaa !4
  %6 = load double, ptr %2, align 8, !tbaa !4
  %7 = fcmp olt double %5, %6
  br i1 %7, label %37, label %8

8:                                                ; preds = %4
  %9 = load double, ptr %0, align 8, !tbaa !4
  %10 = load double, ptr %3, align 8, !tbaa !4
  %11 = fcmp ogt double %9, %10
  br i1 %11, label %37, label %12

12:                                               ; preds = %8
  %13 = getelementptr inbounds nuw i8, ptr %1, i64 8
  %14 = load double, ptr %13, align 8, !tbaa !4
  %15 = getelementptr inbounds nuw i8, ptr %2, i64 8
  %16 = load double, ptr %15, align 8, !tbaa !4
  %17 = fcmp olt double %14, %16
  br i1 %17, label %37, label %18

18:                                               ; preds = %12
  %19 = getelementptr inbounds nuw i8, ptr %0, i64 8
  %20 = load double, ptr %19, align 8, !tbaa !4
  %21 = getelementptr inbounds nuw i8, ptr %3, i64 8
  %22 = load double, ptr %21, align 8, !tbaa !4
  %23 = fcmp ogt double %20, %22
  br i1 %23, label %37, label %24

24:                                               ; preds = %18
  %25 = getelementptr inbounds nuw i8, ptr %1, i64 16
  %26 = load double, ptr %25, align 8, !tbaa !4
  %27 = getelementptr inbounds nuw i8, ptr %2, i64 16
  %28 = load double, ptr %27, align 8, !tbaa !4
  %29 = fcmp olt double %26, %28
  br i1 %29, label %37, label %30

30:                                               ; preds = %24
  %31 = getelementptr inbounds nuw i8, ptr %0, i64 16
  %32 = load double, ptr %31, align 8, !tbaa !4
  %33 = getelementptr inbounds nuw i8, ptr %3, i64 16
  %34 = load double, ptr %33, align 8, !tbaa !4
  %35 = fcmp ogt double %32, %34
  br i1 %35, label %37, label %36

36:                                               ; preds = %30
  br label %37

37:                                               ; preds = %24, %30, %12, %18, %4, %8, %36
  %.0 = phi i1 [ true, %36 ], [ false, %8 ], [ false, %4 ], [ false, %18 ], [ false, %12 ], [ false, %30 ], [ false, %24 ]
  ret i1 %.0
}